(lp0
S'Meat Loaf'
p1
aS'Elvis Costello'
p2
aS'Stevie Nicks'
p3
aS'Eddie Vedder'
p4
aS'Tom Jones (singer)'
p5
aS'Robbie Williams'
p6
aS'Tom Waits'
p7
aS'Jimi Jamison'
p8
aS'Steve Martin'
p9
aS'Isaac Hayes'
p10
aS'Neil Diamond'
p11
aS'Lenny Kravitz'
p12
aS'Kate Bush'
p13
aS'Iggy Pop'
p14
aS'Cyndi Lauper'
p15
aS'Phil Collins'
p16
aS'Elton John'
p17
aS'Alice Cooper'
p18
aS'Mick Jagger'
p19
aS'Lisa Loeb'
p20
aS'Apomecynini'
p21
aS'Desmiphorini'
p22
aS'Agaristinae'
p23
aS'Endemic goitre'
p24
aS'C21H20O10'
p25
aS'Infrastructural power'
p26
aS'Aschelminth'
p27
aS'Economic terrorism'
p28
aS'Corruption in Tanzania'
p29
aS'Economic stratification'
p30
aS'National Security Study Memorandum 200'
p31
aS'Miniature hydraulics'
p32
aS'Functional zoning'
p33
aS'Exclusionary zoning'
p34
aS'Civil war'
p35
aS'State-building'
p36
aS'Self-sustainability'
p37
aS'Fiscal capacity'
p38
aS'State formation'
p39
aS'Catoptria'
p40
aS'"Sikeston'
p41
aS'"Selma'
p42
aS'Timeline of Baltimore'
p43
aS'"St. Augustine'
p44
aS'"Clarksville'
p45
aS'"Chambersburg'
p46
aS'"Lawrence'
p47
aS'History of Philadelphia'
p48
aS'History of Maryland'
p49
aS'History of the Kansas City metropolitan area'
p50
aS'"Annapolis'
p51
aS'"Petersburg'
p52
aS'"Fernandina Beach'
p53
aS'"Alexandria'
p54
aS'United States occupation of Nicaragua'
p55
aS'"Pensacola'
p56
aS'"Camden County'
p57
aS'Allied leaders of World War II'
p58
aS'"Baltimore County'
p59
aS'"Louisville'
p60
aS'Incomplete Nature'
p61
aS'Troubleshooting'
p62
aS'Affective computing'
p63
aS'Isothermal microcalorimetry'
p64
aS'Positive feedback'
p65
aS'Reinforcement'
p66
aS'Classical conditioning'
p67
aS'Odor'
p68
aS'Emergence'
p69
aS'Learning curve'
p70
aS'Hysteresis'
p71
aS'Robust parameter design'
p72
aS'Fuzzy-trace theory'
p73
aS'Eye movement in music reading'
p74
aS'Traumatic brain injury modeling'
p75
aS'Antifragile'
p76
aS'Ambisonic reproduction systems'
p77
aS"Piaget's theory of cognitive development"
p78
aS'Flux balance analysis'
p79
aS'Functional magnetic resonance imaging'
p80
aS'"Philipp'
p81
aS'Maximilien Robespierre'
p82
aS'Charles George Gordon'
p83
aS'In Solitary Witness'
p84
aS'Mortara case'
p85
aS'Black Horror on the Rhine'
p86
aS'John Adams'
p87
aS'"Against the Murderous'
p88
aS'Religious views of Adolf Hitler'
p89
aS'Investigation of the Dreyfus Affair after Picquart'
p90
aS'Edmund Burke'
p91
aS'Timi Abibu Lagunju'
p92
aS'Pacifism'
p93
aS'The Prince'
p94
aS'Dreyfus affair'
p95
aS'Living My Life'
p96
aS'Georges Danton'
p97
aS'Nikolay Speshnev'
p98
aS'Franz von Papen'
p99
aS'Houston Stewart Chamberlain'
p100
aS'"Tri-Cities'
p101
aS'"Kent'
p102
aS'"Champaign'
p103
aS'"Limon'
p104
aS'"Carlsbad'
p105
aS'"Garland'
p106
aS'"Lansing'
p107
aS'"Palmdale'
p108
aS'Pittsburgh'
p109
aS'"Reno'
p110
aS'"Flagstaff'
p111
aS'"Duluth'
p112
aS'"Huntington Beach'
p113
aS'Lehigh Valley'
p114
aS'"Long Beach'
p115
aS'"Cape Coral'
p116
aS'Oklahoma City'
p117
aS'"Kalamazoo'
p118
aS'"Lancaster'
p119
aS'"Modesto'
p120
aS'Match fixing'
p121
aS'Piglet (video game player)'
p122
aS'XQc'
p123
aS'Trojans Korfball Club'
p124
aS'Edmonton Drillers (1996\xe2\x80\x932000)'
p125
aS'Aykut Kocaman'
p126
aS'Bruno Kepi'
p127
aS'Chicago Sting'
p128
aS'Choke (sports)'
p129
aS'Tallahassee Scorpions'
p130
aS'NASL Final 1972'
p131
aS'Dalv\xc3\xadk/Reynir'
p132
aS'Constantinos Georgiades'
p133
aS'Amjad Kalaf'
p134
aS'Elimination from possibility of reaching postseason'
p135
aS'History of Newcastle Jets FC'
p136
aS'Josh Williams (soccer)'
p137
aS'Meteos (video game player)'
p138
aS'Penalty shoot-out (association football)'
p139
aS'BK Mlad\xc3\xa1 Boleslav'
p140
aS'"Nyack'
p141
aS'"Mill Valley'
p142
aS'"Lyons'
p143
aS'"Woodstock'
p144
aS'"Ridgefield'
p145
aS'"Westport'
p146
aS'"Northampton'
p147
aS'"Lovelock'
p148
aS'"Eureka Springs'
p149
aS'"Saluda'
p150
aS'"Croton-on-Hudson'
p151
aS'"Ellenville'
p152
aS'"Rockport'
p153
aS'"Sedona'
p154
aS'"Taos'
p155
aS'"Ventura'
p156
aS'"New Canaan'
p157
aS'"Glen Cove'
p158
aS'"Nevada City'
p159
aS'"Tarrytown'
p160
aS'Landing Craft Assault'
p161
aS'Seek and Destroy (2002 video game)'
p162
aS'Namsos Campaign'
p163
aS'Military deception'
p164
aS'Battle for Henderson Field'
p165
aS'Admiralty Islands campaign'
p166
aS'Battle of Guant\xc3\xa1namo Bay'
p167
aS'Battle of Crete'
p168
aS'Siege of Sevastopol (1941\xe2\x80\x9342)'
p169
aS"Battle of Edson's Ridge"
p170
aS'Battle of Fort Eben-Emael'
p171
aS'Landing at Scarlet Beach'
p172
aS'Omaha Beach'
p173
aS'Battle of Zeeland'
p174
aS'Battle of the Kerch Peninsula'
p175
aS'Battle of Leros'
p176
aS'Battle of Rotterdam'
p177
aS'Battle of Remagen'
p178
aS'British occupation of the Jordan Valley'
p179
aS'Battle of Milne Bay'
p180
aS'Higher Education Act of 1965'
p181
aS'Student rights in higher education'
p182
aS'School voucher'
p183
aS'National Education Association'
p184
aS'Chad Barefoot'
p185
aS'Education in the United States'
p186
aS'School choice'
p187
aS'Institute for Legal Reform'
p188
aS'David Grosso'
p189
aS'Sutherland Institute'
p190
aS'Charter schools in the United States'
p191
aS'Manhattan Institute for Policy Research'
p192
aS'North Carolina House Bill 11'
p193
aS'Susan Fuhrman'
p194
aS'American Council of Trustees and Alumni'
p195
aS'Commission on the Future of Higher Education'
p196
aS'Elementary and Secondary Education Act'
p197
aS'United States Chamber of Commerce'
p198
aS'For-profit higher education in the United States'
p199
aS'Accountability'
p200
aS'Operation Shed'
p201
aS'United States invasion of Grenada'
p202
aS'AgustaWestland Apache'
p203
aS'Ground-Mobile Command Center'
p204
aS'Operation Morris Dance'
p205
aS'Bell Boeing V-22 Osprey'
p206
aS'International Force East Timor'
p207
aS'Bell OH-58 Kiowa'
p208
aS'Australian contribution to the 2003 invasion of Iraq'
p209
aS'Military helicopter'
p210
aS'History of the United States Air Force'
p211
aS'MRAP'
p212
aS'Giretsu Kuteitai'
p213
aS'Operation Odyssey Dawn'
p214
aS'Colombia during World War II'
p215
aS'Australian contribution to UNTAG'
p216
aS'Boeing CH-47 Chinook in Australian service'
p217
aS'MD Helicopters MH-6 Little Bird'
p218
aS'Papua New Guinea Defence Force'
p219
aS'British logistics in the Falklands War'
p220
aS'Beard'
p221
aS'Kiss'
p222
aS'Wild man'
p223
aS'Riddle'
p224
aS'Apple (symbolism)'
p225
aS'Holy Grail'
p226
aS'Sir Gawain and the Green Knight'
p227
aS'Ghost'
p228
aS'Franks Casket'
p229
aS'Pixie'
p230
aS'Adam and Eve'
p231
aS'Medieval football'
p232
aS'Mary Magdalene'
p233
aS'Elf'
p234
aS'Mao Naga'
p235
aS'Green Knight'
p236
aS'Pandora'
p237
aS'Allegory in the Middle Ages'
p238
aS'Satyr'
p239
aS'Testament of Man'
p240
aS'Peacock (2010 film)'
p241
aS'John Doe (Prison Break)'
p242
aS'Gator (film)'
p243
aS'Hank Schrader'
p244
aS'Lori Grimes'
p245
aS'Alexander Mahone'
p246
aS'Penelope Garcia'
p247
aS'"Theodore ""T-Bag"" Bagwell"'
p248
aS'"On the Other Hand'
p249
aS'David Hale (Sons of Anarchy)'
p250
aS'Lisa Niles'
p251
aS'A Case of Rape'
p252
aS'Blankman'
p253
aS'Characters of Smallville'
p254
aS'Aaron Hotchner'
p255
aS'Chuck McGill'
p256
aS'Elle Bishop'
p257
aS'Haven (season 1)'
p258
aS'Stonewalled'
p259
aS'Bruce Wayne (TV series)'
p260
aS'Western world'
p261
aS'High Middle Ages'
p262
aS'Outline of the history of Western civilization'
p263
aS'History of Europe'
p264
aS'Early modern period'
p265
aS'Late Middle Ages'
p266
aS'Europe'
p267
aS'Empire'
p268
aS'History of Western civilization'
p269
aS'Early modern Europe'
p270
aS'Western Europe'
p271
aS'Christendom'
p272
aS'Early Middle Ages'
p273
aS'Culture of Malta'
p274
aS'Italians'
p275
aS'Modern history'
p276
aS'Nation state'
p277
aS'History of the world'
p278
aS'Armenians'
p279
aS'Hungary'
p280
aS'Pomfret School'
p281
aS'Harvard Graduate School of Design'
p282
aS'University of Scranton buildings and landmarks'
p283
aS'IIT Institute of Design'
p284
aS'Folger Shakespeare Library'
p285
aS'"Lady Margaret Hall'
p286
aS'De Montfort University'
p287
aS'Princeton University School of Architecture'
p288
aS'Maryland Institute College of Art'
p289
aS'"University College'
p290
aS'BGSU Firelands'
p291
aS"Hellmuth Ladies' College"
p292
aS'Terry Belanger'
p293
aS'"Goldsmiths'
p294
aS'Stanton Williams'
p295
aS'Joseph Drew'
p296
aS'University of Winchester'
p297
aS'Lewis J. Clarke'
p298
aS'The Mary Louis Academy'
p299
aS'New York School of Applied Design for Women'
p300
aS'"Stark County'
p301
aS'"Elkhorn'
p302
aS'"Eunola'
p303
aS'"Doyle Township'
p304
aS'"Cammack Village'
p305
aS'"Hettinger County'
p306
aS'"Summerset'
p307
aS'"Apple Valley'
p308
aS'"Mustang'
p309
aS'"Barnwell County'
p310
aS'"Frederick'
p311
aS'"Marshall Creek'
p312
aS'"Huetter'
p313
aS'"Moro Plantation'
p314
aS'"Gravel Ridge'
p315
aS'"Oxbow'
p316
aS'"Linndale'
p317
aS'"Latonia Lakes'
p318
aS'"De Soto'
p319
aS'"Lamar'
p320
aS'Fort Stewart'
p321
aS'Fort Rucker'
p322
aS'William Paul Fife'
p323
aS'Puerto Ricans in World War II'
p324
aS'Hispanic Americans in World War II'
p325
aS'Fort Carson'
p326
aS'Hispanics in the United States Marine Corps'
p327
aS'Laughlin Air Force Base'
p328
aS'Air assault'
p329
aS'United States Army Rangers'
p330
aS'Special forces'
p331
aS'"Goose Creek'
p332
aS'Columbus Air Force Base'
p333
aS'The Big Picture (TV series)'
p334
aS'Fort Knox'
p335
aS'Naval gunfire liaison officer'
p336
aS'Task force'
p337
aS'Benjamin Harrison (major general)'
p338
aS'Women in the military'
p339
aS'Fort Bragg'
p340
aS'Tramways in Exeter'
p341
aS'"Charing Cross'
p342
aS'George Hudson'
p343
aS'Welsh Highland Railway restoration'
p344
aS'Nottingham and District Tramways Company Limited'
p345
aS'Newport bus station (Isle of Wight)'
p346
aS'London Necropolis Company'
p347
aS'Baker Street and Waterloo Railway'
p348
aS'Weston-super-Mare Tramways'
p349
aS'Norwich Market'
p350
aS'Christchurch tramway routes'
p351
aS'Motorway service area'
p352
aS'Maryport and Carlisle Railway'
p353
aS'London Necropolis railway station'
p354
aS'Christchurch tramway system'
p355
aS'T\xc3\xb8nsberg\xe2\x80\x93Eidsfoss Line'
p356
aS'Merseytram'
p357
aS'City and South London Railway'
p358
aS'Rosstown Railway'
p359
aS'Bishops Castle Railway'
p360
aS'Amnesic shellfish poisoning'
p361
aS'Rotenone'
p362
aS'Fibropapillomatosis'
p363
aS'Copper in health'
p364
aS'Akkermansia muciniphila'
p365
aS'Persin'
p366
aS'Cypermethrin'
p367
aS'Beta-Methylamino-L-alanine'
p368
aS'T-2 mycotoxin'
p369
aS'Pellagra'
p370
aS'Zinc deficiency'
p371
aS'Lactococcus garvieae'
p372
aS'Polydipsia in birds'
p373
aS'Myxobolus cerebralis'
p374
aS'Locoweed'
p375
aS'Thiamine deficiency'
p376
aS'Solanine'
p377
aS'Fat sand rat'
p378
aS'White-nose syndrome'
p379
aS'Arsenical keratosis'
p380
aS'Forward compatibility'
p381
aS'Comand APS'
p382
aS'Scantext'
p383
aS'QuickDraw GX'
p384
aS'TARGET (CAD software)'
p385
aS'Casio graphic calculators'
p386
aS'Speed Dreams'
p387
aS'Audi Navigation Plus'
p388
aS'TeX'
p389
aS'Multi Media Interface'
p390
aS'TI-30'
p391
aS'HP calculators'
p392
aS'Vector General'
p393
aS'PHIGS'
p394
aS'OBDuino'
p395
aS'Dartmouth BASIC'
p396
aS'Lego Mindstorms'
p397
aS'AlphaSmart'
p398
aS'Creative MuVo'
p399
aS'KCalc'
p400
aS'Korean Wave'
p401
aS'South Korea'
p402
aS'Economy of Asia'
p403
aS'China'
p404
aS'Japan'
p405
aS'Myanmar'
p406
aS'Central Asia'
p407
aS'Somalia'
p408
aS'Asian Century'
p409
aS'Thailand'
p410
aS'Uzbekistan'
p411
aS'Morocco'
p412
aS'Bangladesh'
p413
aS'India as an emerging superpower'
p414
aS'Kuwait'
p415
aS'Indonesia'
p416
aS'Expatriates in the United Arab Emirates'
p417
aS'Economy of Sylhet'
p418
aS'Asia'
p419
aS'Foreign relations of Bangladesh'
p420
aS'Charles Harward'
p421
aS'Legislative Council of the Isle of Man'
p422
aS'Burr\xe2\x80\x93Hamilton duel'
p423
aS'Court of Disputed Returns (Australia)'
p424
aS'Hugo Black'
p425
aS'Speaker of the North Carolina House of Representatives'
p426
aS'"Prospect Hill Cemetery (Washington'
p427
aS'North Carolina General Assembly of 1778'
p428
aS'Indiana Pi Bill'
p429
aS'Electoral Commission (United States)'
p430
aS'Michael Thomas Sadler'
p431
aS'R v Pearson; Ex parte Sipka'
p432
aS'Impeachment of Andrew Johnson'
p433
aS'North Carolina General Assembly of 1779'
p434
aS'Twelfth Texas Legislature'
p435
aS'Augustin-Jean Fresnel'
p436
aS'North Carolina General Assembly of 1777'
p437
aS'Impeachment of Bill Clinton'
p438
aS'New Jersey Senate'
p439
aS'Charles Bradlaugh'
p440
aS'Hopewell High School (Pennsylvania)'
p441
aS'Brentwood High School (Pennsylvania)'
p442
aS'Penn Hills High School'
p443
aS'Blackhawk High School'
p444
aS'Pleasant Valley High School (Pennsylvania)'
p445
aS'"Carlisle High School (Carlisle'
p446
aS'Lower Dauphin High School'
p447
aS'Elizabeth Forward High School'
p448
aS'Rochester Area High School (Pennsylvania)'
p449
aS'West Branch Area Junior/Senior High School'
p450
aS'Bangor Area High School'
p451
aS'Frazier High School'
p452
aS'West Perry High School'
p453
aS'Central Mountain High School'
p454
aS'South Park School District'
p455
aS'Harrisburg High School (Pennsylvania)'
p456
aS'William Allen High School'
p457
aS'Woodland Hills School District'
p458
aS'Cedar Cliff High School'
p459
aS'Shamokin Area High School'
p460
aS'"European Parliament election'
p461
aS'Alliance of Liberals and Democrats for Europe Party'
p462
aS'"Costa Rican general election'
p463
aS'Civic Democratic Alliance'
p464
aS'"Chilean general election'
p465
aS'Party of Civic Rights'
p466
aS'"Loiret\'s 4th constituency by-election'
p467
aS'Renault Clio Cup'
p468
aS"Pas-de-Calais's 11th constituency"
p469
aS'Formula Renault'
p470
aS'"Costa Rican general election'
p471
aS'"Italian general election'
p472
aS'Freedom and Direct Democracy'
p473
aS'"Azores regional election'
p474
aS'Party of European Socialists'
p475
aS'Green Party (Czech Republic)'
p476
aS'"Albanian parliamentary election'
p477
aS'Union of Democrats for the Republic'
p478
aS'"Democratic Party (Italy) leadership election'
p479
aS'"Costa Rican general election'
p480
aS'Crosswordese'
p481
aS'Thom Brennaman'
p482
aS'Tennessee Volunteers football'
p483
aS'Midwestern United States'
p484
aS'Ray Scott (sportscaster)'
p485
aS'Mel Proctor'
p486
aS'Monday Night Football'
p487
aS'Houston Texans draft history'
p488
aS'Tony Caridi'
p489
aS"America's Team"
p490
aS'"History of sports in Fort Wayne'
p491
aS'Buffalo Bills'
p492
aS'Trinity League'
p493
aS'Sports Illustrated cover jinx'
p494
aS"The Top 5 Reasons You Can't Blame..."
p495
aS'Keith Jackson'
p496
aS'Roc Nation Sports'
p497
aS'Cardinal Nation'
p498
aS'Gary Bender'
p499
aS'Loyd Arms'
p500
aS'The New School at West Heath'
p501
aS'"St Catherine\'s School'
p502
aS'Fell Charter Elementary School'
p503
aS'Vida Charter School'
p504
aS'Roberto Clemente Charter School'
p505
aS'Stroudsburg Middle School'
p506
aS'Seven Generations Charter School'
p507
aS'Columbia Borough School District'
p508
aS'Sylvan Heights Science Charter School'
p509
aS'"Old Manor Hospital'
p510
aS'Health Promotion Board'
p511
aS'Elizabeth Casson'
p512
aS'Altoona Area School District'
p513
aS'"Richland School District (Cambria County'
p514
aS'Cheltenham Township School District'
p515
aS'Bangor Area School District'
p516
aS'Annville-Cleona School District'
p517
aS'Halifax Area School District'
p518
aS'Joseph Merrick'
p519
aS'Connellsville Area Senior High School'
p520
aS'Automotive industry crisis of 2008\xe2\x80\x9310'
p521
aS'Economic history of France'
p522
aS'Borgward'
p523
aS'Henry Ford'
p524
aS'History of Lamborghini'
p525
aS'Edward Lewis (Decca)'
p526
aS'Schwinn Bicycle Company'
p527
aS'Economic history of the United Kingdom'
p528
aS'Sno-Jet'
p529
aS'Automobiles L. Rosengart'
p530
aS'Triumph Engineering'
p531
aS'History of Ford Motor Company'
p532
aS'Automotive industry in the United States'
p533
aS'Hoffmann (motorcycle)'
p534
aS'Limonaire Fr\xc3\xa8res'
p535
aS'Ford Dagenham'
p536
aS'PSA Poissy Plant'
p537
aS'Ideal Homes (UK housebuilder)'
p538
aS'Alexandre Darracq'
p539
aS'Guyana Sugar Corporation'
p540
aS'DE-9IM'
p541
aS'Propositional formula'
p542
aS'Three-valued logic'
p543
aS'Verhoeff algorithm'
p544
aS'Matrix calculus'
p545
aS'Euler diagram'
p546
aS'Sine'
p547
aS'If and only if'
p548
aS'Krivine machine'
p549
aS'Doomsday rule'
p550
aS'Lattice path'
p551
aS'Del in cylindrical and spherical coordinates'
p552
aS'Skein relation'
p553
aS'Quadratic reciprocity'
p554
aS'Physical quantity'
p555
aS'Pattern theory'
p556
aS'Crystallographic point group'
p557
aS'Linear temporal logic'
p558
aS'Permutation matrix'
p559
aS'Goalpariya dialects'
p560
aS'Northern Cambria School District'
p561
aS'Springfield School District (Delaware County)'
p562
aS'Canon-McMillan School District'
p563
aS'Wyoming Area School District'
p564
aS'Camp Hill School District'
p565
aS'Stroudsburg Area School District'
p566
aS'Muhlenberg School District'
p567
aS'Shaler Area School District'
p568
aS'Cumberland Valley School District'
p569
aS'West Branch Area School District'
p570
aS'Elk Lake School District'
p571
aS'Tuscarora School District'
p572
aS'Upper Adams School District'
p573
aS'Wyalusing Area School District'
p574
aS'Mechanicsburg Area School District'
p575
aS'Sharon City School District'
p576
aS'Waynesboro Area School District'
p577
aS'Sharpsville Area School District'
p578
aS'Huntingdon Area School District'
p579
aS'Middletown Area School District'
p580
aS'Great Debates (international relations)'
p581
aS'Bradley Garrett'
p582
aS'Problematization'
p583
aS'Extremism'
p584
aS'Concept-driven strategy'
p585
aS'Richard Joyce (philosopher)'
p586
aS"Hallin's spheres"
p587
aS'Medium theory'
p588
aS'Dubious Goals Committee'
p589
aS'Kelly Oliver'
p590
aS'James W. Carey'
p591
aS'Propositional attitude'
p592
aS'Quasi-realism'
p593
aS'Ted Honderich'
p594
aS'Pragmatic theory of truth'
p595
aS'John Zerzan'
p596
aS'Ron McGarry'
p597
aS'Discourse'
p598
aS'Emotivism'
p599
aS'How Are We to Live?'
p600
aS'Battle of Jwa-won'
p601
aS'Siege of Diaoyu Castle'
p602
aS'Battle of Rignano'
p603
aS'Battle of Yehuling'
p604
aS'Girvan Yuddha Bikram Shah'
p605
aS'Lambert II of Nantes'
p606
aS'Battle of Rozgony'
p607
aS'Medieval II: Total War: Kingdoms'
p608
aS'Goguryeo\xe2\x80\x93Tang War'
p609
aS'Battle of Lenzen'
p610
aS'Siege of Chester'
p611
aS'Battle of Bramham Moor'
p612
aS'Battle of Orewin Bridge'
p613
aS'Relief of Montgomery Castle'
p614
aS'Battle of Sedgemoor'
p615
aS'Jamal ad-Din II'
p616
aS'Manchester Regiment (Jacobite)'
p617
aS'Franco-Flemish War'
p618
aS'Battle of St Fagans'
p619
aS'Bolton massacre'
p620
aS'Spirit of America (automobile)'
p621
aS'Sikorsky S-36'
p622
aS'Wittman Chief Oshkosh'
p623
aS'Erik Carlsson'
p624
aS'Rare Bear'
p625
aS'USCGC Point Judith (WPB-82345)'
p626
aS'Eugene Burton Ely'
p627
aS'Citro\xc3\xabn Os\xc3\xa9e'
p628
aS'Wright F2W'
p629
aS'Gustave Whitehead'
p630
aS'Whitehead No. 21'
p631
aS'USCGC Point Verde (WPB-82311)'
p632
aS'Alfa Romeo GTA'
p633
aS'Everson aircraft and automobiles'
p634
aS'Lancia Delta S4'
p635
aS'Howard DGA-4'
p636
aS'Williams FW16'
p637
aS'Formula One Air Racing'
p638
aS'Gene Snow'
p639
aS'Green Monster (automobile)'
p640
aS'Name change'
p641
aS'John Doe'
p642
aS'Legal name'
p643
aS'Probate'
p644
aS'Death certificate'
p645
aS'Marriage in England and Wales'
p646
aS'Lord'
p647
aS'Simony'
p648
aS'Dower'
p649
aS'Marriage license'
p650
aS'Annulment'
p651
aS'Confessional privilege (United States)'
p652
aS'Cyfraith Hywel'
p653
aS'Legal history of wills'
p654
aS'Tithe'
p655
aS'Polygamy'
p656
aS'Intestacy'
p657
aS'Executor'
p658
aS'Qui tam'
p659
aS'Common-law marriage'
p660
aS'Giorgi Maisashvili'
p661
aS'Carola Bluhm'
p662
aS'Rolf Frick'
p663
aS'Ota \xc5\xa0ik'
p664
aS'Slide (hoverboard)'
p665
aS'Anderson Mazoka'
p666
aS'"Gennady Zyuganov presidential campaign'
p667
aS'Jaak Aaviksoo'
p668
aS"Farmers' League"
p669
aS'Zianon Pazniak'
p670
aS'Critical Mass (Pohl and Kornbluth short story)'
p671
aS'Borut Pahor'
p672
aS'Aleksandar Lilov'
p673
aS'Soskovets campaign strategy'
p674
aS'Rafaela Requesens'
p675
aS'Zden\xc4\x9bk Mlyn\xc3\xa1\xc5\x99'
p676
aS'Rein Taagepera'
p677
aS'Karl von Terzaghi'
p678
aS'Tokamak'
p679
aS'Jen\xc5\x91 Szerv\xc3\xa1nszky'
p680
aS'Allegheny Valley School District'
p681
aS'Apollo-Ridge School District'
p682
ag574
aS'Wallingford-Swarthmore School District'
p683
aS'Freedom Area School District'
p684
aS'Smethport Area School District'
p685
aS'Cameron County School District'
p686
aS'Midland Borough School District'
p687
aS'Ridley School District'
p688
aS'North Clarion County School District'
p689
aS'Western Wayne School District'
p690
aS'Troy Area School District'
p691
aS'Baldwin-Whitehall School District'
p692
aS'East Pennsboro Area School District'
p693
aS'Forest Area School District'
p694
aS'Fannett-Metal School District'
p695
ag565
aS'Ephrata Area School District'
p696
aS'Southmoreland School District'
p697
ag572
aS'Anti-VGKC-complex encephalitis'
p698
aS'Ribose-5-phosphate isomerase deficiency'
p699
aS'"Niemann\xe2\x80\x93Pick disease'
p700
aS'Mevalonate kinase deficiency'
p701
aS'KD025'
p702
aS'GSK2831781'
p703
aS'Volasertib'
p704
aS'ANG1005'
p705
aS'WHIM syndrome'
p706
aS'Seliciclib'
p707
aS'Blood\xe2\x80\x93brain barrier'
p708
aS'Semicarbazide-cadmium therapy'
p709
aS'Azacitidine'
p710
aS'Givinostat'
p711
aS'Hyperekplexia'
p712
aS'Resimmune'
p713
aS'Teplizumab'
p714
aS'Solanezumab'
p715
aS'CTLA-4'
p716
aS'TOL101'
p717
ag681
ag694
aS'Sayre Area School District'
p718
aS'Conemaugh Valley School District'
p719
aS'Jim Thorpe Area School District'
p720
aS'Salisbury Township School District'
p721
aS'Upper Dauphin School District'
p722
aS'Northern Tioga School District'
p723
aS'Palmerton Area School District'
p724
aS'Delaware Valley School District'
p725
aS'Albert Gallatin Area School District'
p726
aS'Ambridge Area School District'
p727
aS'Gettysburg Area School District'
p728
aS'Galeton Area School District'
p729
ag693
aS'Brockway Area School District'
p730
aS'Easton Area School District'
p731
ag683
aS'West Mifflin Area School District'
p732
aS'West Middlesex Area School District'
p733
aS'Mohammad Naseem'
p734
aS'Britain First'
p735
aS'Racial Volunteer Force'
p736
aS'Saffron terror'
p737
aS'Zakir Naik'
p738
aS'Mohammed Abdul Sattar'
p739
aS'Bodh Gaya bombings'
p740
aS'Ramesh Kallidai'
p741
aS'Rooster'
p742
aS'Baitul Futuh Mosque'
p743
aS'Messiah Foundation International'
p744
aS'Younus AlGohar'
p745
aS'Islamophobia in the United Kingdom'
p746
aS'Robert Spencer (author)'
p747
aS'East London Mosque'
p748
aS'Al-Muhajiroun'
p749
aS'Jaysh al-Islam'
p750
aS'Haitham al-Haddad'
p751
aS'Mohammad Tawhidi'
p752
aS'Saltley Gate Peace Group'
p753
aS'Casa de Nari\xc3\xb1o'
p754
aS'Jon Lech Johansen'
p755
aS'ComputerCop'
p756
aS'Agust\xc3\xadn Feced'
p757
aS'Alice Domon'
p758
aS'Rebeca Matte Bello'
p759
aS'Guillermo Vargas'
p760
aS'Proceso 8000'
p761
aS'Museo Memoria de la Ciudad'
p762
aS'Careto (malware)'
p763
aS'Electronic Disturbance Theater'
p764
aS'Misael Torres Urrea'
p765
aS'Santa Teresa la Antigua'
p766
aS'Palacio Municipal de Caracas'
p767
aS'Kidnapping and murder of Mois\xc3\xa9s S\xc3\xa1nchez Cerezo'
p768
aS'Government Palace (Peru)'
p769
aS'USBKill'
p770
aS'Jos\xc3\xa9 Gonz\xc3\xa1lez Valencia'
p771
aS'Charles Horman'
p772
aS'National Software Reference Library'
p773
aS'Great Divergence'
p774
ag528
aS'Ottoman decline thesis'
p775
aS'Mid-Tudor Crisis'
p776
aS'Social history of the United Kingdom (1945\xe2\x80\x93present)'
p777
aS'Secularization'
p778
aS'Ancient economic thought'
p779
aS'Differential accumulation'
p780
aS'Kondratiev wave'
p781
ag414
aS'Abba P. Lerner'
p782
aS'Post-war displacement of Keynesianism'
p783
aS'Economic history of India'
p784
aS'Keynesian economics'
p785
aS'East\xe2\x80\x93West dichotomy'
p786
aS'Steady-state economy'
p787
aS'Keynesian Revolution'
p788
aS'Historiography of the British Empire'
p789
aS'Leyland 2S/350 gas turbine'
p790
aS'Fuel Price Escalator'
p791
a.